target datalayout = "e-m:e-p270:32:32-p271:32:32-p272:64:64-i64:64-i128:128-f80:128-n8:16:32:64-S128"
target triple = "x86_64-pc-linux-gnu"

%struct.re_registers = type { i32, i32, ptr, ptr }

; Function Attrs: nounwind sspstrong uwtable
define dso_local i64 @onig_region_memsize(ptr noundef %0) #0 {
  %2 = alloca i64, align 8
  %3 = alloca ptr, align 8
  %4 = alloca i64, align 8
  %5 = alloca i32, align 4
  store ptr %0, ptr %3, align 8, !tbaa !44
  call void @llvm.lifetime.start.p0(i64 8, ptr %4) #11
  store i64 24, ptr %4, align 8, !tbaa !14
  %6 = load ptr, ptr %3, align 8, !tbaa !44
  %7 = icmp eq ptr %6, null
  br i1 %7, label %8, label %9

8:                                                ; preds = %1
  store i64 0, ptr %2, align 8
  store i32 1, ptr %5, align 4
  br label %18

9:                                                ; preds = %1
  %10 = load ptr, ptr %3, align 8, !tbaa !44
  %11 = getelementptr inbounds nuw %struct.re_registers, ptr %10, i32 0, i32 0
  %12 = load i32, ptr %11, align 8, !tbaa !46
  %13 = sext i32 %12 to i64
  %14 = mul i64 %13, 16
  %15 = load i64, ptr %4, align 8, !tbaa !14
  %16 = add i64 %15, %14
  store i64 %16, ptr %4, align 8, !tbaa !14
  %17 = load i64, ptr %4, align 8, !tbaa !14
  store i64 %17, ptr %2, align 8
  store i32 1, ptr %5, align 4
  br label %18

18:                                               ; preds = %9, %8
  call void @llvm.lifetime.end.p0(i64 8, ptr %4) #11
  %19 = load i64, ptr %2, align 8
  ret i64 %19
}