; Function Attrs: mustprogress nofree norecurse nosync nounwind sspstrong willreturn memory(argmem: read) uwtable
define dso_local range(i64 -34359738344, 34359738377) i64 @onig_region_memsize(ptr noundef readonly captures(address_is_null) %0) local_unnamed_addr #10 {
  %2 = icmp eq ptr %0, null
  br i1 %2, label %8, label %3

3:                                                ; preds = %1
  %4 = load i32, ptr %0, align 8, !tbaa !40
  %5 = sext i32 %4 to i64
  %6 = shl nsw i64 %5, 4
  %7 = add nsw i64 %6, 24
  br label %8

8:                                                ; preds = %1, %3
  %.0 = phi i64 [ %7, %3 ], [ 0, %1 ]
  ret i64 %.0
}